/*
 * Intel ACPI Component Architecture
 * AML/ASL+ Disassembler version 20220331 (64-bit version)
 * Copyright (c) 2000 - 2022 Intel Corporation
 * 
 * Disassembly of uefi.dat, Mon Aug  8 17:21:58 2022
 *
 * ACPI Data Table [UEFI]
 *
 * Format: [HexOffset DecimalOffset ByteLength]  FieldName : FieldValue (in hex)
 */

[000h 0000   4]                    Signature : "UEFI"    [UEFI Boot Optimization Table]
[004h 0004   4]                 Table Length : 00000236
[008h 0008   1]                     Revision : 01
[009h 0009   1]                     Checksum : 77
[00Ah 0010   6]                       Oem ID : "INSYDE"
[010h 0016   8]                 Oem Table ID : "H2O BIOS"
[018h 0024   4]                 Oem Revision : 00000001
[01Ch 0028   4]              Asl Compiler ID : "ACPI"
[020h 0032   4]        Asl Compiler Revision : 00040000

[024h 0036  16]              UUID Identifier : 9D4BF935-A674-4710-BA02-BF0AA1758C7B
[034h 0052   2]                  Data Offset : 0036

Raw Table Data: Length 566 (0x236)

    0000: 55 45 46 49 36 02 00 00 01 77 49 4E 53 59 44 45  // UEFI6....wINSYDE
    0010: 48 32 4F 20 42 49 4F 53 01 00 00 00 41 43 50 49  // H2O BIOS....ACPI
    0020: 00 00 04 00 35 F9 4B 9D 74 A6 10 47 BA 02 BF 0A  // ....5.K.t..G....
    0030: A1 75 8C 7B 36 00 24 42 56 44 54 24 00 00 00 24  // .u.{6.$BVDT$...$
    0040: 00 00 00 24 52 4D 41 52 4E 36 42 30 50 30 39 30  // ...$RMARN6B0P090
    0050: 39 00 00 00 00 00 00 00 00 00 00 00 24 54 4D 31  // 9...........$TM1
    0060: 39 35 33 00 00 00 00 00 00 00 00 00 00 00 00 00  // 953.............
    0070: 00 00 00 00 00 00 24 30 35 2E 34 31 2E 34 37 00  // ......$05.41.47.
    0080: 00 00 00 00 00 00 00 00 00 00 00 00 00 00 00 00  // ................
    0090: 00 00 00 00 00 00 00 00 00 00 00 00 FF FF FF FF  // ................
    00A0: FF FF FF FF FF FF FF FF FF FF FF FF FF FF FF FF  // ................
    00B0: FF FF FF FF FF FF FF FF FF FF FF FF FF FF FF FF  // ................
    00C0: FF FF FF FF FF FF FF FF FF FF FF FF FF FF FF FF  // ................
    00D0: FF FF FF FF FF FF FF FF FF FF FF FF FF FF FF FF  // ................
    00E0: FF FF FF FF FF FF FF FF FF FF FF FF FF FF FF FF  // ................
    00F0: FF FF FF FF FF FF FF FF FF FF FF FF FF FF FF FF  // ................
    0100: FF FF FF FF FF FF FF FF FF FF FF FF FF FF FF FF  // ................
    0110: FF FF FF FF FF FF FF FF FF FF FF FF FF FF FF FF  // ................
    0120: FF FF FF FF FF FF FF FF FF FF FF FF FF FF FF FF  // ................
    0130: FF FF FF FF FF FF FF FF FF FF FF FF FF FF FF FF  // ................
    0140: FF FF FF FF FF FF FF FF FF FF FF FF FF FF FF FF  // ................
    0150: FF FF FF FF FF FF FF FF FF FF FF FF FF FF FF FF  // ................
    0160: FF FF FF FF FF 24 42 4D 45 24 00 90 EB 00 00 10  // .....$BME$......
    0170: 00 00 24 00 00 00 01 00 00 00 00 24 00 FF FF FF  // ..$........$....
    0180: FF FF FF FF FF 24 5F 4D 53 43 5F 56 45 52 3D 40  // .....$_MSC_VER=@
    0190: 06 24 52 44 41 54 45 20 08 19 24 45 53 52 54 25  // .$RDATE ..$ESRT%
    01A0: 40 47 59 62 92 B9 12 8C 64 65 43 BA FD EB 86 9F  // @GYb....deC.....
    01B0: B7 EB 47 8B 01 00 00 24 45 4E 44 4F 46 42 56 44  // ..G....$ENDOFBVD
    01C0: 54 FF FF FF FF FF FF FF FF FF FF FF FF FF FF FF  // T...............
    01D0: FF FF FF FF FF FF FF FF FF FF FF FF FF FF FF FF  // ................
    01E0: FF FF FF FF FF FF FF FF FF FF FF FF FF FF FF FF  // ................
    01F0: FF FF FF FF FF FF FF FF FF FF FF FF FF FF FF FF  // ................
    0200: FF FF FF FF FF FF FF FF FF FF FF FF FF FF FF FF  // ................
    0210: FF FF FF FF FF FF FF FF FF FF FF FF FF FF FF FF  // ................
    0220: FF FF FF FF FF FF FF FF FF FF FF FF FF FF FF FF  // ................
    0230: FF FF FF FF FF FF                                // ......
